target datalayout = "e-m:e-p270:32:32-p271:32:32-p272:64:64-i64:64-i128:128-f80:128-n8:16:32:64-S128"
target triple = "x86_64-pc-linux-gnu"

; Function Attrs: mustprogress nounwind uwtable
define dso_local noundef zeroext i1 @_ZNK4llvm12X86InstrInfo16isHighLatencyDefEi(ptr noundef nonnull align 8 dereferenceable(416) %0, i32 noundef %1) unnamed_addr #0 align 2 {
  %3 = alloca i1, align 1
  %4 = alloca ptr, align 8
  %5 = alloca i32, align 4
  store ptr %0, ptr %4, align 8
  store i32 %1, ptr %5, align 4
  %6 = load i32, ptr %5, align 4
  switch i32 %6, label %7 [
    i32 1521, label %8
    i32 1522, label %8
    i32 1523, label %8
    i32 1524, label %8
    i32 1543, label %8
    i32 1544, label %8
    i32 1545, label %8
    i32 1546, label %8
    i32 1547, label %8
    i32 1548, label %8
    i32 1549, label %8
    i32 1550, label %8
    i32 4578, label %8
    i32 4579, label %8
    i32 4580, label %8
    i32 4581, label %8
    i32 4582, label %8
    i32 4583, label %8
    i32 4584, label %8
    i32 4585, label %8
    i32 4586, label %8
    i32 4587, label %8
    i32 4588, label %8
    i32 4589, label %8
    i32 8604, label %8
    i32 8605, label %8
    i32 8569, label %8
    i32 8570, label %8
    i32 8674, label %8
    i32 8675, label %8
    i32 8639, label %8
    i32 8640, label %8
    i32 8687, label %8
    i32 8688, label %8
    i32 8689, label %8
    i32 8690, label %8
    i32 8713, label %8
    i32 8714, label %8
    i32 8715, label %8
    i32 8716, label %8
    i32 21528, label %8
    i32 21529, label %8
    i32 21493, label %8
    i32 21494, label %8
    i32 21598, label %8
    i32 21599, label %8
    i32 21563, label %8
    i32 21564, label %8
    i32 21611, label %8
    i32 21612, label %8
    i32 21613, label %8
    i32 21614, label %8
    i32 21637, label %8
    i32 21638, label %8
    i32 21639, label %8
    i32 21640, label %8
    i32 8571, label %8
    i32 8572, label %8
    i32 8573, label %8
    i32 8574, label %8
    i32 8575, label %8
    i32 8576, label %8
    i32 8577, label %8
    i32 8578, label %8
    i32 8579, label %8
    i32 8580, label %8
    i32 8581, label %8
    i32 8582, label %8
    i32 8583, label %8
    i32 8584, label %8
    i32 8585, label %8
    i32 8586, label %8
    i32 8590, label %8
    i32 8591, label %8
    i32 8599, label %8
    i32 8600, label %8
    i32 8601, label %8
    i32 8592, label %8
    i32 8593, label %8
    i32 8594, label %8
    i32 8595, label %8
    i32 8596, label %8
    i32 8597, label %8
    i32 8598, label %8
    i32 8602, label %8
    i32 8603, label %8
    i32 8641, label %8
    i32 8642, label %8
    i32 8643, label %8
    i32 8644, label %8
    i32 8645, label %8
    i32 8646, label %8
    i32 8647, label %8
    i32 8648, label %8
    i32 8649, label %8
    i32 8650, label %8
    i32 8651, label %8
    i32 8652, label %8
    i32 8653, label %8
    i32 8654, label %8
    i32 8655, label %8
    i32 8656, label %8
    i32 8660, label %8
    i32 8661, label %8
    i32 8669, label %8
    i32 8670, label %8
    i32 8671, label %8
    i32 8662, label %8
    i32 8663, label %8
    i32 8664, label %8
    i32 8665, label %8
    i32 8666, label %8
    i32 8667, label %8
    i32 8668, label %8
    i32 8672, label %8
    i32 8673, label %8
    i32 8676, label %8
    i32 8680, label %8
    i32 8677, label %8
    i32 8678, label %8
    i32 8679, label %8
    i32 8681, label %8
    i32 8682, label %8
    i32 8683, label %8
    i32 8684, label %8
    i32 8685, label %8
    i32 8686, label %8
    i32 8702, label %8
    i32 8706, label %8
    i32 8703, label %8
    i32 8704, label %8
    i32 8705, label %8
    i32 8707, label %8
    i32 8708, label %8
    i32 8709, label %8
    i32 8710, label %8
    i32 8711, label %8
    i32 8712, label %8
    i32 21495, label %8
    i32 21496, label %8
    i32 21497, label %8
    i32 21498, label %8
    i32 21499, label %8
    i32 21500, label %8
    i32 21501, label %8
    i32 21502, label %8
    i32 21503, label %8
    i32 21504, label %8
    i32 21505, label %8
    i32 21506, label %8
    i32 21507, label %8
    i32 21508, label %8
    i32 21509, label %8
    i32 21510, label %8
    i32 21514, label %8
    i32 21515, label %8
    i32 21516, label %8
    i32 21517, label %8
    i32 21518, label %8
    i32 21519, label %8
    i32 21520, label %8
    i32 21521, label %8
    i32 21522, label %8
    i32 21523, label %8
    i32 21524, label %8
    i32 21525, label %8
    i32 21526, label %8
    i32 21527, label %8
    i32 21565, label %8
    i32 21566, label %8
    i32 21567, label %8
    i32 21568, label %8
    i32 21569, label %8
    i32 21570, label %8
    i32 21571, label %8
    i32 21572, label %8
    i32 21573, label %8
    i32 21574, label %8
    i32 21575, label %8
    i32 21576, label %8
    i32 21577, label %8
    i32 21578, label %8
    i32 21579, label %8
    i32 21580, label %8
    i32 21584, label %8
    i32 21585, label %8
    i32 21586, label %8
    i32 21587, label %8
    i32 21588, label %8
    i32 21589, label %8
    i32 21590, label %8
    i32 21591, label %8
    i32 21592, label %8
    i32 21593, label %8
    i32 21594, label %8
    i32 21595, label %8
    i32 21596, label %8
    i32 21597, label %8
    i32 21600, label %8
    i32 21601, label %8
    i32 21602, label %8
    i32 21603, label %8
    i32 21604, label %8
    i32 21605, label %8
    i32 21606, label %8
    i32 21607, label %8
    i32 21608, label %8
    i32 21609, label %8
    i32 21610, label %8
    i32 21626, label %8
    i32 21627, label %8
    i32 21628, label %8
    i32 21629, label %8
    i32 21630, label %8
    i32 21631, label %8
    i32 21632, label %8
    i32 21633, label %8
    i32 21634, label %8
    i32 21635, label %8
    i32 21636, label %8
    i32 12195, label %8
    i32 12196, label %8
    i32 12197, label %8
    i32 12198, label %8
    i32 12199, label %8
    i32 12200, label %8
    i32 12201, label %8
    i32 12202, label %8
    i32 12203, label %8
    i32 12204, label %8
    i32 12205, label %8
    i32 12206, label %8
    i32 12207, label %8
    i32 12208, label %8
    i32 12209, label %8
    i32 12210, label %8
    i32 12211, label %8
    i32 12212, label %8
    i32 12213, label %8
    i32 12214, label %8
    i32 12215, label %8
    i32 12216, label %8
    i32 12217, label %8
    i32 12218, label %8
    i32 12219, label %8
    i32 12220, label %8
    i32 12221, label %8
    i32 12222, label %8
    i32 16716, label %8
    i32 16717, label %8
    i32 16718, label %8
    i32 16719, label %8
    i32 16720, label %8
    i32 16721, label %8
    i32 16722, label %8
    i32 16723, label %8
    i32 16724, label %8
    i32 16725, label %8
    i32 16726, label %8
    i32 16727, label %8
    i32 16728, label %8
    i32 16729, label %8
    i32 16730, label %8
    i32 16731, label %8
    i32 16732, label %8
    i32 16733, label %8
    i32 16734, label %8
    i32 16735, label %8
    i32 21295, label %8
    i32 21296, label %8
    i32 21297, label %8
    i32 21298, label %8
    i32 21299, label %8
    i32 21300, label %8
    i32 21301, label %8
    i32 21302, label %8
    i32 21303, label %8
    i32 21304, label %8
    i32 21305, label %8
    i32 21306, label %8
    i32 21307, label %8
    i32 21308, label %8
    i32 21309, label %8
    i32 21310, label %8
    i32 21311, label %8
    i32 21312, label %8
    i32 21313, label %8
    i32 21314, label %8
    i32 18605, label %8
    i32 18606, label %8
    i32 18607, label %8
    i32 18608, label %8
    i32 18609, label %8
    i32 18610, label %8
    i32 18611, label %8
    i32 18612, label %8
    i32 18613, label %8
    i32 18614, label %8
    i32 18615, label %8
    i32 18616, label %8
  ]

7:                                                ; preds = %2
  store i1 false, ptr %3, align 1
  br label %9

8:                                                ; preds = %2, %2, %2, %2, %2, %2, %2, %2, %2, %2, %2, %2, %2, %2, %2, %2, %2, %2, %2, %2, %2, %2, %2, %2, %2, %2, %2, %2, %2, %2, %2, %2, %2, %2, %2, %2, %2, %2, %2, %2, %2, %2, %2, %2, %2, %2, %2, %2, %2, %2, %2, %2, %2, %2, %2, %2, %2, %2, %2, %2, %2, %2, %2, %2, %2, %2, %2, %2, %2, %2, %2, %2, %2, %2, %2, %2, %2, %2, %2, %2, %2, %2, %2, %2, %2, %2, %2, %2, %2, %2, %2, %2, %2, %2, %2, %2, %2, %2, %2, %2, %2, %2, %2, %2, %2, %2, %2, %2, %2, %2, %2, %2, %2, %2, %2, %2, %2, %2, %2, %2, %2, %2, %2, %2, %2, %2, %2, %2, %2, %2, %2, %2, %2, %2, %2, %2, %2, %2, %2, %2, %2, %2, %2, %2, %2, %2, %2, %2, %2, %2, %2, %2, %2, %2, %2, %2, %2, %2, %2, %2, %2, %2, %2, %2, %2, %2, %2, %2, %2, %2, %2, %2, %2, %2, %2, %2, %2, %2, %2, %2, %2, %2, %2, %2, %2, %2, %2, %2, %2, %2, %2, %2, %2, %2, %2, %2, %2, %2, %2, %2, %2, %2, %2, %2, %2, %2, %2, %2, %2, %2, %2, %2, %2, %2, %2, %2, %2, %2, %2, %2, %2, %2, %2, %2, %2, %2, %2, %2, %2, %2, %2, %2, %2, %2, %2, %2, %2, %2, %2, %2, %2, %2, %2, %2, %2, %2, %2, %2, %2, %2, %2, %2, %2, %2, %2, %2, %2, %2, %2, %2, %2, %2, %2, %2, %2, %2, %2, %2, %2, %2, %2, %2, %2, %2, %2, %2, %2, %2, %2, %2, %2, %2, %2, %2, %2, %2, %2, %2, %2, %2, %2, %2, %2, %2, %2, %2, %2, %2, %2, %2
  store i1 true, ptr %3, align 1
  br label %9

9:                                                ; preds = %8, %7
  %10 = load i1, ptr %3, align 1
  ret i1 %10
}